; Function Attrs: mustprogress null_pointer_is_valid sspstrong uwtable
define void @_ZN14ExtArgSelector5valueEv(ptr dead_on_unwind noalias writable sret(%class.QString) align 8 %0, ptr noundef readonly align 8 captures(none) dereferenceable_or_null(96) %1) unnamed_addr #0 align 2 personality ptr @__gxx_personality_v0 {
  %3 = alloca %class.QVariant, align 8
  %4 = getelementptr inbounds nuw i8, ptr %1, i64 88
  %5 = load ptr, ptr %4, align 8
  %6 = icmp eq ptr %5, null
  br i1 %6, label %7, label %8

7:                                                ; preds = %2
  tail call void @llvm.memset.p0.i64(ptr noundef align 8 dereferenceable(24) dereferenceable_or_null(24) %0, i8 0, i64 24, i1 false)
  br label %12

8:                                                ; preds = %2
  call void @llvm.lifetime.start.p0(i64 32, ptr nonnull %3) #26
  call void @_ZNK9QComboBox11currentDataEi(ptr dead_on_unwind nonnull writable sret(%class.QVariant) align 8 %3, ptr noundef nonnull align 8 dereferenceable_or_null(40) %5, i32 noundef 256)
  invoke void @_ZNK8QVariant8toStringEv(ptr dead_on_unwind writable sret(%class.QString) align 8 %0, ptr noundef nonnull align 8 dereferenceable_or_null(32) %3)
          to label %9 unwind label %10

9:                                                ; preds = %8
  call void @_ZN8QVariantD1Ev(ptr noundef nonnull align 8 dereferenceable_or_null(32) %3) #26
  call void @llvm.lifetime.end.p0(i64 32, ptr nonnull %3) #26
  br label %12

10:                                               ; preds = %8
  %11 = landingpad { ptr, i32 }
          cleanup
  call void @_ZN8QVariantD1Ev(ptr noundef nonnull align 8 dereferenceable_or_null(32) %3) #26
  call void @llvm.lifetime.end.p0(i64 32, ptr nonnull %3) #26
  resume { ptr, i32 } %11

12:                                               ; preds = %9, %7
  ret void
}